target datalayout = "e-m:e-p270:32:32-p271:32:32-p272:64:64-i64:64-i128:128-f80:128-n8:16:32:64-S128"
target triple = "x86_64-pc-linux-gnu"

%"struct.rocksdb::ThreadStatusData" = type <{ %"struct.std::atomic", [7 x i8], %"struct.std::atomic.0", %"struct.std::atomic.2", [4 x i8], %"struct.std::atomic.3", %"struct.std::atomic.5", [4 x i8], %"struct.std::atomic.0", %"struct.std::atomic.6", [4 x i8], [6 x %"struct.std::atomic.0"], %"struct.std::atomic.7", [4 x i8] }>
%"struct.std::atomic" = type { %"struct.std::__atomic_base" }
%"struct.std::__atomic_base" = type { i8 }
%"struct.std::atomic.2" = type { i32 }
%"struct.std::atomic.3" = type { %"struct.std::__atomic_base.4" }
%"struct.std::__atomic_base.4" = type { ptr }
%"struct.std::atomic.5" = type { i32 }
%"struct.std::atomic.0" = type { %"struct.std::__atomic_base.1" }
%"struct.std::__atomic_base.1" = type { i64 }
%"struct.std::atomic.6" = type { i32 }
%"struct.std::atomic.7" = type { i32 }

@_ZN7rocksdb19ThreadStatusUpdater19thread_status_data_E = thread_local global ptr null, align 8

; Function Attrs: mustprogress nounwind uwtable
define linkonce_odr noundef i32 @_ZStanSt12memory_orderSt23__memory_order_modifier(i32 noundef %0, i32 noundef %1) #2 comdat {
  %3 = alloca i32, align 4
  %4 = alloca i32, align 4
  store i32 %0, ptr %3, align 4, !tbaa !68
  store i32 %1, ptr %4, align 4, !tbaa !148
  %5 = load i32, ptr %3, align 4, !tbaa !68
  %6 = load i32, ptr %4, align 4, !tbaa !148
  %7 = and i32 %5, %6
  ret i32 %7
}

; Function Attrs: alwaysinline mustprogress nounwind uwtable
define linkonce_odr noundef zeroext i1 @_ZNKSt13__atomic_baseIbE4loadESt12memory_order(ptr noundef nonnull align 1 dereferenceable(1) %0, i32 noundef %1) #10 comdat align 2 {
  %3 = alloca ptr, align 8
  %4 = alloca i32, align 4
  %5 = alloca i32, align 4
  %6 = alloca i8, align 1
  store ptr %0, ptr %3, align 8, !tbaa !146
  store i32 %1, ptr %4, align 4, !tbaa !68
  %7 = load ptr, ptr %3, align 8
  call void @llvm.lifetime.start.p0(i64 4, ptr %5) #5
  %8 = load i32, ptr %4, align 4, !tbaa !68
  %9 = call noundef i32 @_ZStanSt12memory_orderSt23__memory_order_modifier(i32 noundef %8, i32 noundef 65535)
  store i32 %9, ptr %5, align 4, !tbaa !68
  br label %10

10:                                               ; preds = %2
  br label %11

11:                                               ; preds = %10
  br label %12

12:                                               ; preds = %11
  br label %13

13:                                               ; preds = %12
  br label %14

14:                                               ; preds = %13
  br label %15

15:                                               ; preds = %14
  %16 = getelementptr inbounds nuw %"struct.std::__atomic_base", ptr %7, i32 0, i32 0
  %17 = load i32, ptr %4, align 4, !tbaa !68
  switch i32 %17, label %18 [
    i32 1, label %20
    i32 2, label %20
    i32 5, label %22
  ]

18:                                               ; preds = %15
  %19 = load atomic i8, ptr %16 monotonic, align 1
  store i8 %19, ptr %6, align 1
  br label %24

20:                                               ; preds = %15, %15
  %21 = load atomic i8, ptr %16 acquire, align 1
  store i8 %21, ptr %6, align 1
  br label %24

22:                                               ; preds = %15
  %23 = load atomic i8, ptr %16 seq_cst, align 1
  store i8 %23, ptr %6, align 1
  br label %24

24:                                               ; preds = %22, %20, %18
  %25 = load i8, ptr %6, align 1, !tbaa !62, !range !64, !noundef !65
  %26 = trunc i8 %25 to i1
  call void @llvm.lifetime.end.p0(i64 4, ptr %5) #5
  ret i1 %26
}

; Function Attrs: mustprogress nounwind uwtable
define linkonce_odr noundef zeroext i1 @_ZNKSt6atomicIbE4loadESt12memory_order(ptr noundef nonnull align 1 dereferenceable(1) %0, i32 noundef %1) #2 comdat align 2 {
  %3 = alloca ptr, align 8
  %4 = alloca i32, align 4
  store ptr %0, ptr %3, align 8, !tbaa !66
  store i32 %1, ptr %4, align 4, !tbaa !68
  %5 = load ptr, ptr %3, align 8
  %6 = getelementptr inbounds nuw %"struct.std::atomic", ptr %5, i32 0, i32 0
  %7 = load i32, ptr %4, align 4, !tbaa !68
  %8 = call noundef zeroext i1 @_ZNKSt13__atomic_baseIbE4loadESt12memory_order(ptr noundef nonnull align 1 dereferenceable(1) %6, i32 noundef %7) #5
  ret i1 %8
}

; Function Attrs: mustprogress nounwind uwtable
define linkonce_odr void @_ZNSt6atomicIN7rocksdb12ThreadStatus9StateTypeEE5storeES2_St12memory_order(ptr noundef nonnull align 4 dereferenceable(4) %0, i32 noundef %1, i32 noundef %2) #2 comdat align 2 {
  %4 = alloca ptr, align 8
  %5 = alloca i32, align 4
  %6 = alloca i32, align 4
  store ptr %0, ptr %4, align 8, !tbaa !79
  store i32 %1, ptr %5, align 4, !tbaa !78
  store i32 %2, ptr %6, align 4, !tbaa !68
  %7 = load ptr, ptr %4, align 8
  %8 = getelementptr inbounds nuw %"struct.std::atomic.7", ptr %7, i32 0, i32 0
  %9 = load i32, ptr %6, align 4, !tbaa !68
  switch i32 %9, label %10 [
    i32 3, label %12
    i32 5, label %14
  ]

10:                                               ; preds = %3
  %11 = load i32, ptr %5, align 4
  store atomic i32 %11, ptr %8 monotonic, align 4
  br label %16

12:                                               ; preds = %3
  %13 = load i32, ptr %5, align 4
  store atomic i32 %13, ptr %8 release, align 4
  br label %16

14:                                               ; preds = %3
  %15 = load i32, ptr %5, align 4
  store atomic i32 %15, ptr %8 seq_cst, align 4
  br label %16

16:                                               ; preds = %14, %12, %10
  ret void
}

; Function Attrs: mustprogress nounwind uwtable
define noundef ptr @_ZN7rocksdb19ThreadStatusUpdater20GetLocalThreadStatusEv(ptr noundef nonnull align 8 dereferenceable(216) %0) #2 align 2 {
  %2 = alloca ptr, align 8
  %3 = alloca ptr, align 8
  store ptr %0, ptr %3, align 8, !tbaa !37
  %4 = call align 8 ptr @llvm.threadlocal.address.p0(ptr align 8 @_ZN7rocksdb19ThreadStatusUpdater19thread_status_data_E)
  %5 = load ptr, ptr %4, align 8, !tbaa !42
  %6 = icmp eq ptr %5, null
  br i1 %6, label %7, label %8

7:                                                ; preds = %1
  store ptr null, ptr %2, align 8
  br label %17

8:                                                ; preds = %1
  %9 = call align 8 ptr @llvm.threadlocal.address.p0(ptr align 8 @_ZN7rocksdb19ThreadStatusUpdater19thread_status_data_E)
  %10 = load ptr, ptr %9, align 8, !tbaa !42
  %11 = getelementptr inbounds nuw %"struct.rocksdb::ThreadStatusData", ptr %10, i32 0, i32 0
  %12 = call noundef zeroext i1 @_ZNKSt6atomicIbE4loadESt12memory_order(ptr noundef nonnull align 1 dereferenceable(1) %11, i32 noundef 0) #5
  br i1 %12, label %14, label %13

13:                                               ; preds = %8
  store ptr null, ptr %2, align 8
  br label %17

14:                                               ; preds = %8
  %15 = call align 8 ptr @llvm.threadlocal.address.p0(ptr align 8 @_ZN7rocksdb19ThreadStatusUpdater19thread_status_data_E)
  %16 = load ptr, ptr %15, align 8, !tbaa !42
  store ptr %16, ptr %2, align 8
  br label %17

17:                                               ; preds = %14, %13, %7
  %18 = load ptr, ptr %2, align 8
  ret ptr %18
}

; Function Attrs: mustprogress uwtable
define void @_ZN7rocksdb19ThreadStatusUpdater14SetThreadStateENS_12ThreadStatus9StateTypeE(ptr noundef nonnull align 8 dereferenceable(216) %0, i32 noundef %1) #3 align 2 {
  %3 = alloca ptr, align 8
  %4 = alloca i32, align 4
  %5 = alloca ptr, align 8
  %6 = alloca i32, align 4
  store ptr %0, ptr %3, align 8, !tbaa !37
  store i32 %1, ptr %4, align 4, !tbaa !78
  %7 = load ptr, ptr %3, align 8
  call void @llvm.lifetime.start.p0(i64 8, ptr %5) #5
  %8 = call noundef ptr @_ZN7rocksdb19ThreadStatusUpdater20GetLocalThreadStatusEv(ptr noundef nonnull align 8 dereferenceable(216) %7)
  store ptr %8, ptr %5, align 8, !tbaa !42
  %9 = load ptr, ptr %5, align 8, !tbaa !42
  %10 = icmp eq ptr %9, null
  br i1 %10, label %11, label %12

11:                                               ; preds = %2
  store i32 1, ptr %6, align 4
  br label %16

12:                                               ; preds = %2
  %13 = load ptr, ptr %5, align 8, !tbaa !42
  %14 = getelementptr inbounds nuw %"struct.rocksdb::ThreadStatusData", ptr %13, i32 0, i32 12
  %15 = load i32, ptr %4, align 4, !tbaa !78
  call void @_ZNSt6atomicIN7rocksdb12ThreadStatus9StateTypeEE5storeES2_St12memory_order(ptr noundef nonnull align 4 dereferenceable(4) %14, i32 noundef %15, i32 noundef 0) #5
  store i32 0, ptr %6, align 4
  br label %16

16:                                               ; preds = %12, %11
  call void @llvm.lifetime.end.p0(i64 8, ptr %5) #5
  %17 = load i32, ptr %6, align 4
  switch i32 %17, label %19 [
    i32 0, label %18
    i32 1, label %18
  ]

18:                                               ; preds = %16, %16
  ret void

19:                                               ; preds = %16
  unreachable
}