; Function Attrs: mustprogress nofree norecurse nounwind willreturn memory(readwrite, inaccessiblemem: none) uwtable
define void @_ZN7rocksdb19ThreadStatusUpdater14SetThreadStateENS_12ThreadStatus9StateTypeE(ptr noundef nonnull readnone align 8 captures(none) dereferenceable(216) %0, i32 noundef %1) local_unnamed_addr #8 align 2 {
  %3 = tail call align 8 ptr @llvm.threadlocal.address.p0(ptr align 8 @_ZN7rocksdb19ThreadStatusUpdater19thread_status_data_E)
  %4 = load ptr, ptr %3, align 8, !tbaa !14
  %5 = icmp eq ptr %4, null
  br i1 %5, label %_ZN7rocksdb19ThreadStatusUpdater20GetLocalThreadStatusEv.exit.thread, label %6

6:                                                ; preds = %2
  %7 = load atomic i8, ptr %4 monotonic, align 1
  %8 = trunc i8 %7 to i1
  br i1 %8, label %_ZN7rocksdb19ThreadStatusUpdater20GetLocalThreadStatusEv.exit, label %_ZN7rocksdb19ThreadStatusUpdater20GetLocalThreadStatusEv.exit.thread

_ZN7rocksdb19ThreadStatusUpdater20GetLocalThreadStatusEv.exit: ; preds = %6
  %9 = getelementptr inbounds nuw i8, ptr %4, i64 104
  store atomic i32 %1, ptr %9 monotonic, align 4
  br label %_ZN7rocksdb19ThreadStatusUpdater20GetLocalThreadStatusEv.exit.thread

_ZN7rocksdb19ThreadStatusUpdater20GetLocalThreadStatusEv.exit.thread: ; preds = %6, %2, %_ZN7rocksdb19ThreadStatusUpdater20GetLocalThreadStatusEv.exit
  ret void
}